target datalayout = "e-m:e-p270:32:32-p271:32:32-p272:64:64-i64:64-i128:128-f80:128-n8:16:32:64-S128"
target triple = "x86_64-pc-linux-gnu"

%struct.darktable_t = type { %struct.dt_codepath_t, i32, i32, ptr, ptr, ptr, ptr, ptr, ptr, ptr, ptr, ptr, ptr, ptr, ptr, ptr, ptr, ptr, ptr, ptr, ptr, ptr, ptr, ptr, ptr, ptr, ptr, ptr, ptr, ptr, [64 x %struct.dt_pthread_mutex_t], %struct.dt_pthread_mutex_t, %struct.dt_pthread_mutex_t, %struct.dt_pthread_mutex_t, %struct.dt_pthread_mutex_t, %struct.dt_pthread_mutex_t, ptr, ptr, ptr, ptr, ptr, ptr, ptr, ptr, ptr, ptr, ptr, ptr, ptr, %struct.dt_lua_state_t, ptr, double, ptr, i32, [47 x i32], i32, i32, ptr, ptr, %struct.dt_sys_resources_t, %struct.dt_backthumb_t, %struct.dt_gimp_t }
%struct.dt_codepath_t = type { i8, [3 x i8] }
%struct.dt_pthread_mutex_t = type { %union.pthread_mutex_t }
%union.pthread_mutex_t = type { %struct.__pthread_mutex_s }
%struct.__pthread_mutex_s = type { i32, i32, i32, i32, i32, i16, i16, %struct.__pthread_internal_list }
%struct.__pthread_internal_list = type { ptr, ptr }
%struct.dt_lua_state_t = type { i32 }
%struct.dt_sys_resources_t = type { i64, i64, ptr, ptr, i32 }
%struct.dt_backthumb_t = type { double, double, i32, i32, i32, i32 }
%struct.dt_gimp_t = type { i32, ptr, ptr, i32, i32 }
%struct.dt_action_t = type { i32, ptr, ptr, ptr, ptr, ptr }
%struct._gui_collapsible_section_t = type { ptr, ptr, ptr, ptr, ptr, ptr, ptr }
%struct.dt_lib_t = type { ptr, ptr, %struct.anon.19 }
%struct.anon.19 = type { %struct.anon.20, %struct.anon.21, %struct.anon.22, %struct.anon.23 }
%struct.anon.20 = type { ptr, ptr, ptr, ptr, ptr, i32, i32, i32, ptr, ptr, ptr, ptr, ptr }
%struct.anon.21 = type { ptr, ptr, i32 }
%struct.anon.22 = type { ptr }
%struct.anon.23 = type { i32 }

@darktable = external global %struct.darktable_t, align 8

; Function Attrs: inlinehint nounwind uwtable
define internal ptr @DTGTK_TOGGLEBUTTON(ptr noundef %0) #4 {
  %2 = alloca ptr, align 8
  store ptr %0, ptr %2, align 8, !tbaa !99
  %3 = load ptr, ptr %2, align 8, !tbaa !99
  %4 = call i64 @dtgtk_togglebutton_get_type()
  %5 = call ptr @g_type_check_instance_cast(ptr noundef %3, i64 noundef %4)
  ret ptr %5
}

; Function Attrs: inlinehint nounwind uwtable
define internal ptr @DTGTK_EXPANDER(ptr noundef %0) #4 {
  %2 = alloca ptr, align 8
  store ptr %0, ptr %2, align 8, !tbaa !99
  %3 = load ptr, ptr %2, align 8, !tbaa !99
  %4 = call i64 @dtgtk_expander_get_type()
  %5 = call ptr @g_type_check_instance_cast(ptr noundef %3, i64 noundef %4)
  ret ptr %5
}

; Function Attrs: nounwind uwtable
define internal void @_collapse_button_changed(ptr noundef %0, ptr noundef %1) #0 {
  %3 = alloca ptr, align 8
  %4 = alloca ptr, align 8
  %5 = alloca ptr, align 8
  %6 = alloca i32, align 4
  store ptr %0, ptr %3, align 8, !tbaa !341
  store ptr %1, ptr %4, align 8, !tbaa !99
  call void @llvm.lifetime.start.p0(i64 8, ptr %5) #15
  %7 = load ptr, ptr %4, align 8, !tbaa !99
  store ptr %7, ptr %5, align 8, !tbaa !329
  %8 = load ptr, ptr %5, align 8, !tbaa !329
  %9 = getelementptr inbounds nuw %struct._gui_collapsible_section_t, ptr %8, i32 0, i32 6
  %10 = load ptr, ptr %9, align 8, !tbaa !339
  %11 = icmp ne ptr %10, null
  br i1 %11, label %12, label %23

12:                                               ; preds = %2
  %13 = load ptr, ptr %5, align 8, !tbaa !329
  %14 = getelementptr inbounds nuw %struct._gui_collapsible_section_t, ptr %13, i32 0, i32 6
  %15 = load ptr, ptr %14, align 8, !tbaa !339
  %16 = getelementptr inbounds nuw %struct.dt_action_t, ptr %15, i32 0, i32 0
  %17 = load i32, ptr %16, align 8, !tbaa !343
  %18 = icmp eq i32 %17, 7
  br i1 %18, label %19, label %23

19:                                               ; preds = %12
  %20 = load ptr, ptr %5, align 8, !tbaa !329
  %21 = getelementptr inbounds nuw %struct._gui_collapsible_section_t, ptr %20, i32 0, i32 6
  %22 = load ptr, ptr %21, align 8, !tbaa !339
  call void @dt_iop_request_focus(ptr noundef %22)
  br label %42

23:                                               ; preds = %12, %2
  %24 = load ptr, ptr %5, align 8, !tbaa !329
  %25 = getelementptr inbounds nuw %struct._gui_collapsible_section_t, ptr %24, i32 0, i32 6
  %26 = load ptr, ptr %25, align 8, !tbaa !339
  %27 = icmp ne ptr %26, null
  br i1 %27, label %28, label %41

28:                                               ; preds = %23
  %29 = load ptr, ptr %5, align 8, !tbaa !329
  %30 = getelementptr inbounds nuw %struct._gui_collapsible_section_t, ptr %29, i32 0, i32 6
  %31 = load ptr, ptr %30, align 8, !tbaa !339
  %32 = getelementptr inbounds nuw %struct.dt_action_t, ptr %31, i32 0, i32 0
  %33 = load i32, ptr %32, align 8, !tbaa !343
  %34 = icmp eq i32 %33, 3
  br i1 %34, label %35, label %41

35:                                               ; preds = %28
  %36 = load ptr, ptr %5, align 8, !tbaa !329
  %37 = getelementptr inbounds nuw %struct._gui_collapsible_section_t, ptr %36, i32 0, i32 6
  %38 = load ptr, ptr %37, align 8, !tbaa !339
  %39 = load ptr, ptr getelementptr inbounds nuw (%struct.darktable_t, ptr @darktable, i32 0, i32 10), align 8, !tbaa !344
  %40 = getelementptr inbounds nuw %struct.dt_lib_t, ptr %39, i32 0, i32 1
  store ptr %38, ptr %40, align 8, !tbaa !345
  br label %41

41:                                               ; preds = %35, %28, %23
  br label %42

42:                                               ; preds = %41, %19
  call void @llvm.lifetime.start.p0(i64 4, ptr %6) #15
  %43 = load ptr, ptr %5, align 8, !tbaa !329
  %44 = getelementptr inbounds nuw %struct._gui_collapsible_section_t, ptr %43, i32 0, i32 2
  %45 = load ptr, ptr %44, align 8, !tbaa !331
  %46 = call i64 @gtk_toggle_button_get_type() #16
  %47 = call ptr @g_type_check_instance_cast(ptr noundef %45, i64 noundef %46)
  %48 = call i32 @gtk_toggle_button_get_active(ptr noundef %47)
  store i32 %48, ptr %6, align 4, !tbaa !17
  %49 = load ptr, ptr %5, align 8, !tbaa !329
  %50 = getelementptr inbounds nuw %struct._gui_collapsible_section_t, ptr %49, i32 0, i32 3
  %51 = load ptr, ptr %50, align 8, !tbaa !334
  %52 = call ptr @DTGTK_EXPANDER(ptr noundef %51)
  %53 = load i32, ptr %6, align 4, !tbaa !17
  call void @dtgtk_expander_set_expanded(ptr noundef %52, i32 noundef %53)
  %54 = load ptr, ptr %5, align 8, !tbaa !329
  %55 = getelementptr inbounds nuw %struct._gui_collapsible_section_t, ptr %54, i32 0, i32 2
  %56 = load ptr, ptr %55, align 8, !tbaa !331
  %57 = call ptr @DTGTK_TOGGLEBUTTON(ptr noundef %56)
  %58 = load i32, ptr %6, align 4, !tbaa !17
  %59 = icmp ne i32 %58, 0
  %60 = select i1 %59, i32 2, i32 4
  call void @dtgtk_togglebutton_set_paint(ptr noundef %57, ptr noundef @dtgtk_cairo_paint_solid_arrow, i32 noundef %60, ptr noundef null)
  %61 = load ptr, ptr %5, align 8, !tbaa !329
  %62 = getelementptr inbounds nuw %struct._gui_collapsible_section_t, ptr %61, i32 0, i32 1
  %63 = load ptr, ptr %62, align 8, !tbaa !337
  %64 = load i32, ptr %6, align 4, !tbaa !17
  call void @dt_conf_set_bool(ptr noundef %63, i32 noundef %64)
  call void @llvm.lifetime.end.p0(i64 4, ptr %6) #15
  call void @llvm.lifetime.end.p0(i64 8, ptr %5) #15
  ret void
}