; Function Attrs: nounwind uwtable
define internal void @_collapse_button_changed(ptr readnone captures(none) %0, ptr noundef readonly captures(none) %1) #0 {
  %3 = getelementptr inbounds nuw i8, ptr %1, i64 48
  %4 = load ptr, ptr %3, align 8, !tbaa !259
  %.not = icmp eq ptr %4, null
  br i1 %.not, label %.thread, label %5

5:                                                ; preds = %2
  %6 = load i32, ptr %4, align 8, !tbaa !261
  switch i32 %6, label %.thread [
    i32 7, label %7
    i32 3, label %8
  ]

7:                                                ; preds = %5
  tail call void @dt_iop_request_focus(ptr noundef nonnull %4) #18
  br label %.thread

8:                                                ; preds = %5
  %9 = load ptr, ptr getelementptr inbounds nuw (i8, ptr @darktable, i64 72), align 8, !tbaa !262
  %10 = getelementptr inbounds nuw i8, ptr %9, i64 8
  store ptr %4, ptr %10, align 8, !tbaa !263
  br label %.thread

.thread:                                          ; preds = %5, %2, %8, %7
  %11 = getelementptr inbounds nuw i8, ptr %1, i64 16
  %12 = load ptr, ptr %11, align 8, !tbaa !252
  %13 = tail call i64 @gtk_toggle_button_get_type() #19
  %14 = tail call ptr @g_type_check_instance_cast(ptr noundef %12, i64 noundef %13) #18
  %15 = tail call i32 @gtk_toggle_button_get_active(ptr noundef %14) #18
  %16 = getelementptr inbounds nuw i8, ptr %1, i64 24
  %17 = load ptr, ptr %16, align 8, !tbaa !255
  %18 = tail call i64 @dtgtk_expander_get_type() #18
  %19 = tail call ptr @g_type_check_instance_cast(ptr noundef %17, i64 noundef %18) #18
  tail call void @dtgtk_expander_set_expanded(ptr noundef %19, i32 noundef %15) #18
  %20 = load ptr, ptr %11, align 8, !tbaa !252
  %21 = tail call i64 @dtgtk_togglebutton_get_type() #18
  %22 = tail call ptr @g_type_check_instance_cast(ptr noundef %20, i64 noundef %21) #18
  %.not15 = icmp eq i32 %15, 0
  %23 = select i1 %.not15, i32 4, i32 2
  tail call void @dtgtk_togglebutton_set_paint(ptr noundef %22, ptr noundef nonnull @dtgtk_cairo_paint_solid_arrow, i32 noundef %23, ptr noundef null) #18
  %24 = getelementptr inbounds nuw i8, ptr %1, i64 8
  %25 = load ptr, ptr %24, align 8, !tbaa !257
  tail call void @dt_conf_set_bool(ptr noundef %25, i32 noundef %15) #18
  ret void
}